(lp1
(dp2
S'99760726041833472'
p3
I0
sS'100068508951511040'
p4
I0
sS'99882793764519936'
p5
I0
sS'100025268533592065'
p6
I1
sS'100023476001320960'
p7
I0
sS'99973090443927552'
p8
I0
sS'99850896879517696'
p9
I0
sS'100031259442548737'
p10
I0
sS'100025577238577152'
p11
I1
sS'99761530282840064'
p12
I1
sS'99817895504261120'
p13
I0
sS'99746770476736512'
p14
I0
sS'100059580817608704'
p15
I0
sS'99986538565337089'
p16
I0
sS'99999684080320512'
p17
I0
sS'99963021467713537'
p18
I0
sS'99738029979213824'
p19
I1
sS'100003906494541824'
p20
I1
sS'100008464914456577'
p21
I1
sS'99957187543179264'
p22
I0
sS'99994970374680576'
p23
I0
sS'99914420725100544'
p24
I0
sS'99912696060841985'
p25
I1
sS'100032475979452416'
p26
I0
sS'99905607259267073'
p27
I0
sS'99912269474971648'
p28
I1
sS'99877427295174656'
p29
I0
sS'99905605766103040'
p30
I0
sS'99791816181817344'
p31
I1
sS'99957611906080768'
p32
I1
sS'99818916519489536'
p33
I0
sS'99795700052791296'
p34
I1
sS'100006031538651137'
p35
I0
sS'99846531615703041'
p36
I1
sS'99739135090245632'
p37
I0
sS'99822077695111169'
p38
I0
sS'99878745808191488'
p39
I0
sS'99776873487273984'
p40
I0
sS'99943258536427520'
p41
I0
sS'99720822863822848'
p42
I0
sS'99951883262758912'
p43
I0
sS'99936602184355841'
p44
I0
sS'100044940834373632'
p45
I0
sS'100033495367303168'
p46
I1
sS'99995773575512064'
p47
I1
sS'100023189710704640'
p48
I1
sS'99949430714802178'
p49
I0
sS'99781774170800128'
p50
I1
sS'99830901864796160'
p51
I0
sS'99837651754024960'
p52
I1
sS'100012514946981889'
p53
I0
sS'99821575989248000'
p54
I1
sS'99790208312147970'
p55
I0
sS'99714263345659904'
p56
I1
sS'99708612687040512'
p57
I0
sS'99988429122711552'
p58
I1
sS'100065683307638784'
p59
I0
sS'100021771700404225'
p60
I0
sS'100042136497557504'
p61
I0
sS'99736075987189760'
p62
I0
sS'100020702299688960'
p63
I0
sS'99841331060412416'
p64
I1
sS'100041745852678144'
p65
I0
sS'99857535758110720'
p66
I0
sS'99929669037604864'
p67
I0
sS'100016819229831168'
p68
I1
sS'99938057117114368'
p69
I1
sS'99862160498376705'
p70
I1
sS'99866763675709441'
p71
I0
sS'99939097145131008'
p72
I1
sS'99799330793332736'
p73
I1
sS'100032893237207040'
p74
I1
sS'99878452827660288'
p75
I1
sS'99938297928888320'
p76
I1
sS'99885349811142656'
p77
I0
sS'99713854954676224'
p78
I0
sS'100038951569600512'
p79
I1
sS'99897162137214977'
p80
I0
sS'100030051168428034'
p81
I0
sS'99854079257358336'
p82
I0
sS'99980684789161984'
p83
I1
sS'99991012956573698'
p84
I0
sS'99932439610277889'
p85
I1
sS'100054035020791809'
p86
I1
sS'99960197468004352'
p87
I1
sS'99997756365615104'
p88
I0
sS'100021475897126912'
p89
I0
sS'99979928526790656'
p90
I1
sS'100066587305975808'
p91
I0
sS'100006550910935040'
p92
I0
sS'100015617805008896'
p93
I0
sS'99721373622079489'
p94
I1
sS'99882231715205120'
p95
I0
sS'99917831847682048'
p96
I0
sS'99980864724799488'
p97
I0
sS'100061189702299648'
p98
I0
sS'99968650894770177'
p99
I1
sS'99915038344753153'
p100
I0
sS'99968883561218049'
p101
I0
sS'99892667026128896'
p102
I1
sS'99880882491502592'
p103
I0
sS'99836346650210304'
p104
I0
sS'99770425202061312'
p105
I1
sS'99931038310080513'
p106
I0
sS'99819085973553152'
p107
I0
sS'99772037509296128'
p108
I0
sS'99846769524998144'
p109
I0
sS'99878966768312321'
p110
I0
sS'99931509624029185'
p111
I0
sS'99883176410877952'
p112
I0
sS'99966171092230144'
p113
I0
sS'99997129468162048'
p114
I0
sS'100006147985113088'
p115
I0
sS'99717517555142656'
p116
I1
sS'99883873177059328'
p117
I0
sS'99882931677442048'
p118
I0
sS'99905136532533249'
p119
I1
sS'99813553644634114'
p120
I0
sS'99715667028217856'
p121
I1
sS'99882550981427200'
p122
I0
sS'99761302527934464'
p123
I0
sS'100052148162801664'
p124
I0
sS'100005135559835648'
p125
I1
sS'99863298463371264'
p126
I1
sS'100044115865116672'
p127
I1
sS'99899662571552768'
p128
I0
sS'100004295117774848'
p129
I0
sS'99989696658157568'
p130
I0
sS'99923330160791552'
p131
I0
sS'99829525944336385'
p132
I0
sS'99929515370872832'
p133
I0
sS'99757495643414528'
p134
I0
sS'99932986010632192'
p135
I0
sS'99960243227852800'
p136
I0
sS'99891720770162688'
p137
I0
sS'99742751041658880'
p138
I1
sS'99718473428643840'
p139
I0
sS'100042854654676992'
p140
I0
sS'99941785882722304'
p141
I0
sS'100000395711098880'
p142
I0
sS'100015444232126464'
p143
I0
sS'99852678502416385'
p144
I0
sS'100019631040892930'
p145
I1
sS'100062457342590976'
p146
I0
sS'99887631361519616'
p147
I0
sS'99992046852513793'
p148
I1
sS'99928018662850560'
p149
I0
sS'99944967836942336'
p150
I1
sS'99724070026870784'
p151
I1
sS'99726841971097601'
p152
I0
sS'99869897546403840'
p153
I0
sS'99836404766490625'
p154
I0
sS'99935116113092608'
p155
I0
sS'99997844072697856'
p156
I0
sS'100037743102537728'
p157
I0
sS'99899864657297408'
p158
I0
sS'99783757816541184'
p159
I0
sS'99905245898997760'
p160
I0
sS'100031356721053696'
p161
I1
sS'100049017106472961'
p162
I0
sS'99828182827540481'
p163
I1
sS'99866918776868864'
p164
I1
sS'99884630144073728'
p165
I0
sS'99774979796774912'
p166
I1
sS'100044565544845314'
p167
I0
sS'99856307745591296'
p168
I1
sS'100018327069528064'
p169
I1
sS'100003840295845888'
p170
I1
sS'99903052542263297'
p171
I0
sS'100038067930406913'
p172
I0
sS'99850344401612800'
p173
I1
sS'99946648578428928'
p174
I1
sS'99958102018887682'
p175
I0
sS'99861679692722177'
p176
I0
sS'99840943657717760'
p177
I1
sS'100014968900026368'
p178
I0
sS'100044913932111873'
p179
I1
sS'99728133078519810'
p180
I0
sS'99852035071029248'
p181
I0
sS'100009808853336064'
p182
I1
sS'99918175197609984'
p183
I0
sS'99956292713582592'
p184
I0
sS'99926796111314944'
p185
I1
sS'99948205013348352'
p186
I0
sS'99730136613662720'
p187
I0
sS'99926351414444032'
p188
I0
sS'99888855498498048'
p189
I0
sS'99746971354542080'
p190
I1
sS'99905606143582208'
p191
I1
sS'99738325677649920'
p192
I1
sS'100014812125343744'
p193
I0
sS'99868935654080512'
p194
I1
sS'99953413084811264'
p195
I1
sS'99914601449259008'
p196
I1
sS'100018524587700224'
p197
I0
sS'100031466221748224'
p198
I0
sS'99806798437036032'
p199
I0
sS'99821123264458752'
p200
I0
sS'99898642537783296'
p201
I1
sS'99743859789139969'
p202
I1
sS'99907403939717121'
p203
I1
sS'99962572819800064'
p204
I0
sS'99938957818724352'
p205
I0
sS'100015598926438400'
p206
I1
sS'100043446403858433'
p207
I1
sS'99714807539838976'
p208
I1
sS'99864988759498752'
p209
I0
sS'99870243148677120'
p210
I0
sS'99910018228424705'
p211
I0
sS'100019689576599552'
p212
I0
sS'99722481111281665'
p213
I0
sS'99762099936440320'
p214
I1
sS'99730670116544512'
p215
I0
sS'99808062969356288'
p216
I1
sS'99903044682125312'
p217
I0
sS'100000076050595840'
p218
I0
sS'100004694629425153'
p219
I1
sS'99989406504587264'
p220
I0
sS'99926870191124480'
p221
I0
sS'99952441881137152'
p222
I1
sS'99992360225742850'
p223
I0
sS'99899797808492544'
p224
I0
sS'100065651267350528'
p225
I0
sS'99849813696331776'
p226
I0
sS'99922311582453760'
p227
I0
sS'99869475909812225'
p228
I0
sS'99956665134223360'
p229
I0
sS'99735173398134784'
p230
I0
sS'99982693877555200'
p231
I1
sS'99945000120492032'
p232
I0
sS'100009463502745600'
p233
I1
sS'100011526278217728'
p234
I1
sS'99992151479418880'
p235
I1
sS'100003177293819904'
p236
I0
sS'99748356959645696'
p237
I0
sS'99856813477986304'
p238
I1
sS'99836191549034496'
p239
I0
sS'99966177878614016'
p240
I0
sS'99989260119191552'
p241
I0
sS'99968195573710848'
p242
I0
sS'100043116958056448'
p243
I0
sS'100010135526719488'
p244
I0
sS'100000612481110016'
p245
I1
sS'99956797779099648'
p246
I0
sS'99961266633846784'
p247
I1
sS'99856133149302784'
p248
I0
sS'100040930966519808'
p249
I1
sS'99768980679561216'
p250
I0
sS'100026190949122048'
p251
I0
sS'99721048538357761'
p252
I0
sS'99826569878585345'
p253
I0
sS'99779862692233216'
p254
I0
sS'100019418586812417'
p255
I1
sS'100024124193247233'
p256
I1
sS'99847085721001984'
p257
I0
sS'99754072931962880'
p258
I1
sS'99999100690378752'
p259
I0
sS'99907482746499072'
p260
I0
sS'100005055817715712'
p261
I0
sS'99937140003184641'
p262
I0
sS'100053587413045248'
p263
I0
sS'100064053556281344'
p264
I1
sS'99989314540285952'
p265
I1
sS'99914585871626240'
p266
I1
sS'99715091255148544'
p267
I1
sS'100035561632440320'
p268
I0
sS'99946346559184896'
p269
I0
sS'99838087366062080'
p270
I0
sS'100040050074587137'
p271
I0
sS'99780202674135040'
p272
I1
sS'99899965589045248'
p273
I0
sS'100040066168143873'
p274
I1
sS'99875476063010816'
p275
I0
sS'100010953638289408'
p276
I1
sS'100003758880210944'
p277
I0
sS'100020052866244608'
p278
I1
sS'100050740822806529'
p279
I0
sS'99707118503997440'
p280
I0
sS'99806814199222273'
p281
I1
sS'99936205336088576'
p282
I0
sS'99747773766828033'
p283
I0
sS'100050384889974785'
p284
I1
sS'99841405823885312'
p285
I0
sS'99859767991861248'
p286
I1
sS'99821398138167296'
p287
I1
sS'99853380138176513'
p288
I0
sS'99862595531575296'
p289
I1
sS'99715158963789824'
p290
I0
sS'100036523881283584'
p291
I0
sS'100055677917085696'
p292
I0
sS'99964976432820224'
p293
I0
sS'99904350113120256'
p294
I0
sS'99903224194142208'
p295
I0
sS'99775029524443136'
p296
I1
sS'99817793318424576'
p297
I1
sS'100063550004936704'
p298
I0
sS'99926317939687424'
p299
I0
sS'99813746112872448'
p300
I0
sS'99876367633616896'
p301
I1
sS'99840302268956672'
p302
I0
sS'99835356995780608'
p303
I0
sS'99992786882924544'
p304
I0
sS'99940896031784960'
p305
I1
sS'99893894493376512'
p306
I1
sS'99826692251586561'
p307
I0
sS'99758670728003584'
p308
I1
sS'99893339901538304'
p309
I0
sS'100057880383852544'
p310
I0
sS'99708642315603969'
p311
I1
sS'99887680099323904'
p312
I0
sS'99779366812254208'
p313
I0
sS'99892587732795392'
p314
I0
sS'99935945842900992'
p315
I0
sS'100023301535051776'
p316
I0
sS'99962861677314048'
p317
I0
sS'99902421937045504'
p318
I1
sS'99991448119816192'
p319
I0
sS'99907495354564609'
p320
I1
sS'100030208945553409'
p321
I1
sS'99809973218983936'
p322
I0
sS'99795186686771200'
p323
I1
sS'99748908225413120'
p324
I0
sS'99744261372772352'
p325
I0
sS'99988974793265152'
p326
I1
sS'100066807251083264'
p327
I1
sS'100010174391123968'
p328
I1
sS'99854031916236801'
p329
I1
sS'99945062678540288'
p330
I0
sS'99775518567710720'
p331
I1
sS'99947655383359488'
p332
I0
sS'99834838026158081'
p333
I0
sS'99893837908025345'
p334
I1
sS'99966491503493121'
p335
I0
sS'99931932653137920'
p336
I0
sS'99727164127191040'
p337
I1
sS'99978034693681153'
p338
I1
sS'100032374166929408'
p339
I0
sS'100056763465859072'
p340
I0
sS'99910179327442945'
p341
I1
sS'99759933976870912'
p342
I0
sS'100005005746114560'
p343
I0
sS'99826061147246592'
p344
I0
sS'99836005451972608'
p345
I1
sS'99756501282992129'
p346
I0
sS'99947777152393216'
p347
I0
sS'99956077025693696'
p348
I0
sS'99955080131915777'
p349
I1
sS'100002406783401984'
p350
I1
sS'99849016057135104'
p351
I1
sS'100006674391236608'
p352
I0
sS'100015115797135360'
p353
I0
sS'99793569048563712'
p354
I1
sS'99893762951610368'
p355
I1
sS'99899225512484864'
p356
I0
sS'99819687151542272'
p357
I1
sS'99708112415625216'
p358
I0
sS'99979956079165442'
p359
I1
sS'100025125142925312'
p360
I0
sS'100010044111859713'
p361
I1
sS'99799224463532032'
p362
I1
sS'99970484996804608'
p363
I0
sS'99937396287733760'
p364
I0
sS'99780268390498304'
p365
I1
sS'99963428134850560'
p366
I0
sS'99846283417763841'
p367
I1
sS'100002589470507009'
p368
I0
sS'99868759753359360'
p369
I0
sS'100022216883847168'
p370
I1
sS'99957926474686464'
p371
I0
sS'100008549823946752'
p372
I0
sS'99904926389506048'
p373
I0
sS'100019973132517376'
p374
I0
sS'100025977186426881'
p375
I1
sS'99964086032404481'
p376
I0
sS'99707128851333121'
p377
I0
sS'99843076612300800'
p378
I0
sS'99898008094769152'
p379
I1
sS'100036720262782976'
p380
I0
sS'100059081720610816'
p381
I0
sS'99951494157185024'
p382
I0
sS'99964627387027456'
p383
I0
sS'100036096196489217'
p384
I1
sS'99797333453185025'
p385
I0
sS'100056662018232320'
p386
I1
sS'99728809779134464'
p387
I1
sS'99942544695234560'
p388
I1
sS'100053437265350657'
p389
I1
sS'99867352904122368'
p390
I0
sS'100064751014518784'
p391
I1
sS'99851812139581441'
p392
I0
sS'100021168706306051'
p393
I0
sS'99923630812692480'
p394
I1
sS'99851728035393537'
p395
I1
sS'99968846173175809'
p396
I0
sS'99747271683489793'
p397
I1
sS'99934249423081472'
p398
I1
sS'100048222055170048'
p399
I0
sS'100017921736192000'
p400
I1
sS'99885536524775426'
p401
I0
sS'99730294457909248'
p402
I1
sS'99827570387845120'
p403
I0
sS'99855838595919873'
p404
I1
sS'99824145075937280'
p405
I1
sS'99999483307376640'
p406
I0
sS'99850671074979840'
p407
I0
sS'100059334486147072'
p408
I0
sS'99910371846008832'
p409
I1
sS'99785797137473536'
p410
I0
sS'100027688001077248'
p411
I0
sS'100065757483909120'
p412
I0
sS'99809790770946049'
p413
I0
sS'99870079788912640'
p414
I1
sS'99844353412956160'
p415
I0
sS'99924580747051008'
p416
I1
sS'100039588722130944'
p417
I0
sS'100001132465762304'
p418
I0
sS'99879620198924288'
p419
I1
sS'99751570224320512'
p420
I0
sS'99915347007778816'
p421
I0
sS'99743699822575616'
p422
I1
sS'100003563991871488'
p423
I1
sS'99824993747222528'
p424
I0
sS'99898805486485504'
p425
I0
sS'100053565875302400'
p426
I0
sS'99980807288000512'
p427
I1
sS'100056792842768384'
p428
I0
sS'99866438503890944'
p429
I0
sS'99975968659226625'
p430
I1
sS'100029892703420416'
p431
I0
sS'100049441834278912'
p432
I1
sS'99980316344729602'
p433
I0
sS'99867807071744002'
p434
I1
sS'99897321046806528'
p435
I1
sS'99837140220911616'
p436
I0
sS'99971855854735360'
p437
I0
sS'99966784798605312'
p438
I1
sS'99867568956915712'
p439
I1
sS'99917737429696513'
p440
I0
sS'99711777956315136'
p441
I0
sS'99953964879069184'
p442
I0
sS'99770512842043392'
p443
I0
sS'99919851455393792'
p444
I0
sS'99918379317592064'
p445
I1
sS'100024981043421184'
p446
I0
sS'99901157421486080'
p447
I0
sS'100063417330708480'
p448
I0
sS'99868035699048448'
p449
I1
sS'99826236381069312'
p450
I0
sS'100005149828841472'
p451
I0
sS'100022790572351488'
p452
I1
sS'99998206292795392'
p453
I1
sS'99896389949063168'
p454
I1
sS'99783608050532352'
p455
I1
sS'99803559545155584'
p456
I1
sS'100016702972112896'
p457
I0
sS'99783653642616832'
p458
I1
sS'99709233368539136'
p459
I0
sS'100053993425862656'
p460
I0
sS'99807212725211136'
p461
I1
sS'99839018258276352'
p462
I1
sS'99895542309593088'
p463
I1
sS'99923661984776193'
p464
I0
sS'99866842570571776'
p465
I0
sS'100009878499758080'
p466
I0
sS'100061310196252672'
p467
I0
sS'99959605941116928'
p468
I1
sS'99746303369682944'
p469
I1
sS'99878312024866816'
p470
I1
sS'99975860039327744'
p471
I1
sS'99902211324252161'
p472
I1
sS'100039540072394752'
p473
I1
sS'99944362632429568'
p474
I0
sS'99763358663852032'
p475
I1
sS'99933749852119041'
p476
I0
sS'99882970218889216'
p477
I1
sS'99786707532120064'
p478
I1
sS'100038593367650304'
p479
I0
sS'99929772913737729'
p480
I0
sS'99833163731304448'
p481
I0
sS'100023780608450561'
p482
I0
sS'100014774858944512'
p483
I0
sS'99712234971865088'
p484
I1
sS'99924159911567360'
p485
I0
sS'100054519307706369'
p486
I0
sS'99719518443667456'
p487
I1
sS'99968223138684928'
p488
I1
sS'99979338639872001'
p489
I1
sS'100017132787605505'
p490
I0
sS'100037904646160384'
p491
I0
sS'99877366632955904'
p492
I1
sS'99887367619481600'
p493
I0
sS'99921423107235840'
p494
I0
sS'99848911337955328'
p495
I1
sS'99792723640467456'
p496
I1
sS'99958445247176704'
p497
I0
sS'100008980465729536'
p498
I0
sS'99871625574494208'
p499
I0
sS'99995135307288576'
p500
I0
sS'99891426715901952'
p501
I0
sS'99913820159492096'
p502
I0
sS'100031599718047745'
p503
I1
sS'100008298757111808'
p504
I0
sS'99852533421457408'
p505
I0
sS'99796631834214400'
p506
I0
sS'99968728795590657'
p507
I0
sS'100038577232158721'
p508
I1
sS'99740870219272193'
p509
I1
sS'100036556785594368'
p510
I0
sS'99858902245572608'
p511
I1
sS'99938489684078592'
p512
I1
sS'100057410680532993'
p513
I0
sS'100030465188179968'
p514
I1
sS'99708007646113792'
p515
I1
sS'99952748732235777'
p516
I1
sS'99934834083901442'
p517
I0
sS'99845899739598849'
p518
I1
sS'99917151829360640'
p519
I0
sS'99860460177850368'
p520
I0
sS'100021514249842688'
p521
I0
sS'100051872945147904'
p522
I0
sS'99913338032619520'
p523
I1
sS'99977205605605376'
p524
I0
sS'99909693358620672'
p525
I0
sS'99957413783932928'
p526
I1
sS'100007375204909056'
p527
I1
sS'99961598575251457'
p528
I0
sS'99814530976198657'
p529
I0
sS'99708519816761344'
p530
I1
sS'99888067439104000'
p531
I0
sS'99924322830921728'
p532
I0
sS'99991425671892992'
p533
I0
sS'99904770650804224'
p534
I0
sS'99847880587755520'
p535
I0
sS'100023940948303872'
p536
I0
sS'100004322699522049'
p537
I0
sS'99922823899922432'
p538
I1
sS'99852960913301504'
p539
I1
sS'99789978699186176'
p540
I0
sS'99844704518144000'
p541
I0
sS'99846261980663808'
p542
I0
sS'100022585483472896'
p543
I1
sS'99996545025458176'
p544
I0
sS'99977337348694016'
p545
I0
sS'99838947991093248'
p546
I0
sS'99950398797922304'
p547
I1
sS'99887222693703681'
p548
I0
sS'99740748538318848'
p549
I1
sS'99908576016994304'
p550
I0
sS'99907326957461504'
p551
I1
sS'99822865200857088'
p552
I1
sS'99954763180933120'
p553
I1
sS'100056747816910849'
p554
I0
sS'99901219132280833'
p555
I0
sS'99884314552041472'
p556
I1
sS'99769083721027584'
p557
I1
sS'100053851666792449'
p558
I0
sS'99886423406161922'
p559
I0
sS'99970555314311168'
p560
I0
sS'99853516763447297'
p561
I0
sS'99737101117038592'
p562
I0
sS'99847123515879424'
p563
I0
sS'99725162974425088'
p564
I1
sS'99966389057630208'
p565
I1
sS'99913995791777792'
p566
I1
sS'99981044379430913'
p567
I1
sS'99917141070979072'
p568
I0
sS'99799049875636224'
p569
I1
sS'100015352292978689'
p570
I1
sS'99909627566768128'
p571
I0
sS'99737666727321600'
p572
I1
sS'99944164573200384'
p573
I0
sS'99940899559178241'
p574
I0
sS'99979430713229312'
p575
I0
sS'100044265610153984'
p576
I1
sS'99712267251232768'
p577
I0
sS'100064909630517248'
p578
I1
sS'99974273438982144'
p579
I1
sS'99783916537380864'
p580
I1
sS'100020138899812353'
p581
I1
sS'100046998425706497'
p582
I1
sS'99901331678052352'
p583
I0
sS'99831007863242754'
p584
I1
sS'99980834672619520'
p585
I1
sS'99975243145289728'
p586
I1
sS'99800669275426816'
p587
I0
sS'99875663514832896'
p588
I0
sS'99873531415896064'
p589
I1
sS'99964236960247808'
p590
I1
sS'100021604318326784'
p591
I0
sS'99855318762266624'
p592
I1
sS'99760311367761921'
p593
I0
sS'100004570343804928'
p594
I1
sS'99868767160512512'
p595
I0
sS'100003233380057088'
p596
I0
sS'100060136483201024'
p597
I0
sS'99970534946775040'
p598
I0
sS'99848539831664640'
p599
I1
sS'99864126955855872'
p600
I0
sS'100011723741855744'
p601
I0
sS'99958619562459136'
p602
I0
sS'100031363402563584'
p603
I0
sS'99881062028673024'
p604
I0
sS'99991059760816128'
p605
I1
sS'100065378625003520'
p606
I0
sS'100012713341755392'
p607
I1
sS'99926534978150400'
p608
I1
sS'99857342681726976'
p609
I0
sS'99991484819976192'
p610
I1
sS'99920856184131585'
p611
I1
sS'99863656887631872'
p612
I0
sS'100013317866790912'
p613
I1
sS'100006421323710467'
p614
I0
sS'99846379068866560'
p615
I1
sS'99750219851382784'
p616
I0
sS'99927302632243200'
p617
I0
sS'99822824268632064'
p618
I0
sS'99967446198403074'
p619
I0
sS'99715361292828674'
p620
I0
sS'99966641751863296'
p621
I0
sS'99955638423142400'
p622
I0
sS'99802678791639040'
p623
I1
sS'99948718819786752'
p624
I1
sS'99979388958941184'
p625
I0
sS'99965634535886849'
p626
I0
sS'99928474290110465'
p627
I1
sS'100049548315082752'
p628
I0
sS'99874486702194689'
p629
I0
sS'100034379623055362'
p630
I1
sS'99929892753379329'
p631
I1
sS'99821089919729665'
p632
I0
sS'100000252622417920'
p633
I0
sS'100060918410526720'
p634
I1
sS'99941952023298048'
p635
I0
sS'99822206082748416'
p636
I1
sS'100050569045098496'
p637
I0
sS'99998237448085505'
p638
I0
sS'100040625742807040'
p639
I1
sS'99822076235485184'
p640
I0
sS'100028562316341249'
p641
I0
sS'99966310225674240'
p642
I0
sS'99889471180378112'
p643
I0
sS'99921921956786177'
p644
I0
sS'99829582403878912'
p645
I0
sS'99842183053590528'
p646
I1
sS'100039724953116672'
p647
I0
sS'100012801615081472'
p648
I0
sS'99960489030844416'
p649
I0
sS'99835135557509120'
p650
I1
sS'100065464742449154'
p651
I1
sS'99843722002432000'
p652
I1
sS'100034891252637698'
p653
I0
sS'99881172129165312'
p654
I1
sS'99989148127076352'
p655
I0
sS'99946929865240576'
p656
I0
sS'99867734946480128'
p657
I0
sS'99921859507789824'
p658
I1
sS'99957385317187584'
p659
I0
sS'99736587373527040'
p660
I0
sS'99954319998193664'
p661
I0
sS'99834078102159360'
p662
I1
sS'99953943668465665'
p663
I0
sS'99775407636754432'
p664
I1
sS'100033490912944128'
p665
I0
sS'99963636331716608'
p666
I1
sS'100047807062351872'
p667
I0
sS'99824488333582337'
p668
I0
sS'100047317066981376'
p669
I0
sS'100005746405683200'
p670
I0
sS'99995668470435841'
p671
I1
sS'99999988221878272'
p672
I1
sS'99935793048600576'
p673
I0
sS'99890292928430080'
p674
I0
sS'99828715323797505'
p675
I1
sS'99981873698193408'
p676
I1
sS'99927140048441344'
p677
I0
sS'99950333924605952'
p678
I0
sS'99999507953098752'
p679
I0
sS'99758947602403329'
p680
I0
sS'99892796781101056'
p681
I0
sS'99943236046565376'
p682
I0
sS'99957197856976896'
p683
I1
sS'100031807516442626'
p684
I0
sS'99998524221034498'
p685
I0
sS'99781696274186240'
p686
I0
sS'100054363430600705'
p687
I1
sS'99938077220409344'
p688
I1
sS'99807956270456832'
p689
I1
sS'100052343176953856'
p690
I0
sS'99736378555904000'
p691
I0
sS'99977961654059008'
p692
I0
sS'99881369148203008'
p693
I0
sS'99992337257738240'
p694
I0
sS'99964929884430338'
p695
I0
sS'99711201663135744'
p696
I1
sS'99941714327912448'
p697
I1
sS'100000842337366016'
p698
I1
sS'100002801605812224'
p699
I1
sS'99975210509418497'
p700
I0
sS'99997912578273280'
p701
I0
sS'99947140075360256'
p702
I1
sS'99851626721984512'
p703
I0
sS'99915050894114816'
p704
I0
sS'99773745350193152'
p705
I0
sS'100049633392345088'
p706
I1
sS'99820693717401600'
p707
I1
sS'100062386228166657'
p708
I0
sS'99958325017448448'
p709
I1
sS'99892730032963584'
p710
I0
sS'100010808922214400'
p711
I1
sS'99860903926824960'
p712
I0
sS'99836358570422272'
p713
I1
sS'99945435485044736'
p714
I0
sS'99823148626755584'
p715
I1
sS'100050226752131072'
p716
I0
sS'99973795212828672'
p717
I0
sS'99857071821950978'
p718
I0
sS'99875750764744704'
p719
I0
sS'99985635489755136'
p720
I0
sS'100009302667956224'
p721
I0
sS'99898550699307008'
p722
I1
sS'99974044098637825'
p723
I0
sS'99862723294281729'
p724
I0
sS'99733329888288768'
p725
I1
sS'99953848558436352'
p726
I0
sS'99743051718737920'
p727
I0
sS'99743900431958016'
p728
I0
sS'99951154577932288'
p729
I0
sS'99828203228635136'
p730
I1
sS'99843182862405632'
p731
I0
sS'99982642006605824'
p732
I1
sS'99790125629841408'
p733
I1
sS'99802432749568002'
p734
I0
sS'99893594684534784'
p735
I0
sS'99926298884976640'
p736
I0
sS'99997282048548865'
p737
I1
sS'99861928071012354'
p738
I0
sS'99904529235058689'
p739
I1
sS'100055919508983808'
p740
I0
sS'99963130221826048'
p741
I0
sS'99838855359889408'
p742
I0
sS'99932713246654465'
p743
I0
sS'99872081134616576'
p744
I0
sS'99751938282889216'
p745
I1
sS'99864510659166209'
p746
I0
sS'99847647120199681'
p747
I0
sS'100024085135900672'
p748
I1
sS'100046414993825792'
p749
I0
sS'99855062981017600'
p750
I0
sS'99929242766278656'
p751
I0
sS'99995334591262720'
p752
I1
sS'99914112221446144'
p753
I0
sS'100029005356466177'
p754
I0
sS'99924589131464705'
p755
I0
sS'99913909703688192'
p756
I0
sS'99976119759020032'
p757
I1
sS'99972938069065728'
p758
I1
sS'99911184450469888'
p759
I1
sS'100046152333934592'
p760
I0
sS'99905748968017920'
p761
I1
sS'100050747437228032'
p762
I1
sS'100023411107049472'
p763
I0
sS'99804075058667520'
p764
I0
sS'99995218077691904'
p765
I1
sS'100066030537285633'
p766
I0
sS'99985115878395904'
p767
I0
sS'99951614319792128'
p768
I0
sS'99828898379997184'
p769
I0
sS'100039725431271424'
p770
I0
sS'100046995078647808'
p771
I1
sS'100023607887007744'
p772
I0
sS'99920578777071616'
p773
I1
sS'100027824840253441'
p774
I0
sS'99853464095559680'
p775
I0
sS'99993036557258752'
p776
I0
sS'99853724129837056'
p777
I0
sS'99813488838451200'
p778
I0
sS'99937371449077760'
p779
I0
sS'99854722424516608'
p780
I1
sS'99973247541592064'
p781
I0
sS'99965364917645312'
p782
I0
sS'99952826612056064'
p783
I1
sS'99724089903685632'
p784
I1
sS'99941381002375169'
p785
I0
sS'99844689989083136'
p786
I0
sS'99870813251059712'
p787
I0
sS'99761095077658624'
p788
I1
sS'99981556176785408'
p789
I1
sS'99982266633170945'
p790
I0
sS'99972515350327297'
p791
I1
sS'99889997943013377'
p792
I0
sS'100059142034690048'
p793
I1
sS'99873435546689536'
p794
I0
sS'99907001949241344'
p795
I1
sS'99928317150511104'
p796
I0
sS'99946426435506176'
p797
I1
sS'100010378645352448'
p798
I1
sS'99733755371077633'
p799
I1
sS'99846603862585344'
p800
I1
sS'100040974964756481'
p801
I0
sS'100014622731542528'
p802
I1
sS'99735018036928512'
p803
I0
sS'99936026746818560'
p804
I0
sS'99999996128137216'
p805
I0
sS'99723659488399360'
p806
I1
sS'99777216883343360'
p807
I0
sS'99976140424364032'
p808
I0
sS'100002235865497602'
p809
I0
sS'99799869367132160'
p810
I0
sS'99989343854280704'
p811
I0
sS'99999987785674752'
p812
I1
sS'99994044431732737'
p813
I0
sS'99729621897060353'
p814
I0
sS'99994360669679616'
p815
I0
sS'99767401436033024'
p816
I1
sS'99844472602501120'
p817
I0
sS'99760159382962176'
p818
I0
sS'100055035387449345'
p819
I0
sS'99956317082501120'
p820
I0
sS'100003086248062976'
p821
I1
sS'99850403071533057'
p822
I1
sS'99798613944836097'
p823
I0
sS'99860230002835456'
p824
I0
sS'99782812093259776'
p825
I1
sS'99964330187038720'
p826
I0
sS'99989427081846784'
p827
I1
sS'100021276470554624'
p828
I1
sS'99869131230294016'
p829
I0
sS'99709407910301696'
p830
I1
sS'99903243659911168'
p831
I0
sS'99916802527739904'
p832
I0
sS'99855589777223681'
p833
I1
sS'99890347987054594'
p834
I0
sS'100017665455820800'
p835
I1
sS'99714505646415872'
p836
I1
sS'99852832605347840'
p837
I0
sS'100007907986391040'
p838
I0
sS'99993697852203008'
p839
I0
sS'99843617694289921'
p840
I1
sS'100048677850193920'
p841
I0
sS'99850608357552128'
p842
I0
sS'100040768407871488'
p843
I0
sS'100002129850277889'
p844
I0
sS'100040264630009856'
p845
I1
sS'100013707983208448'
p846
I0
sS'99907477038039040'
p847
I1
sS'100033058840903680'
p848
I0
sS'100018638077169664'
p849
I1
sS'99949523828346881'
p850
I1
sS'99824412034998272'
p851
I0
sS'99833033900830722'
p852
I1
sS'100018833313628162'
p853
I1
sS'99795366370738176'
p854
I1
sS'100030766758637568'
p855
I0
sS'99865793759686657'
p856
I0
sS'99789099002626048'
p857
I0
sS'99848490653454337'
p858
I0
sS'99890084836417537'
p859
I1
sS'99714460884811776'
p860
I1
sS'99850449275990016'
p861
I0
sS'99977991618174976'
p862
I0
sS'99868884915597313'
p863
I0
sS'99988809743216640'
p864
I0
sS'99815850365829121'
p865
I0
sS'99975268575358976'
p866
I0
sS'99959050883702784'
p867
I0
sS'99860544097497090'
p868
I0
sS'99723892238729217'
p869
I1
sS'99717285824049152'
p870
I1
sS'99850181926846464'
p871
I0
sS'99859819552444416'
p872
I1
sS'100036031054741504'
p873
I0
sS'99797145338654720'
p874
I0
sS'99894079227297792'
p875
I0
sS'100035831561064448'
p876
I1
sS'99989264560955392'
p877
I0
sS'100017703204552704'
p878
I0
sS'99978692037578754'
p879
I1
sS'99940269239177216'
p880
I1
sS'99739153708761088'
p881
I1
sS'99728629696708608'
p882
I0
sS'99860856132747266'
p883
I0
sS'99922904497668096'
p884
I0
sS'100061805715533824'
p885
I1
sS'99992467113390080'
p886
I1
sS'100014780055695360'
p887
I0
sS'100064490162360320'
p888
I0
sS'99846377047195649'
p889
I1
sS'99964777400516609'
p890
I0
sS'100021322775674880'
p891
I1
sS'100033938197712896'
p892
I0
sS'100042198631985152'
p893
I0
sS'99991414682824705'
p894
I1
sS'99793879494180864'
p895
I1
sS'100046810856439808'
p896
I0
sS'99716150325280769'
p897
I0
sS'100044804137828352'
p898
I1
sS'99989749913227264'
p899
I1
sS'99851485059350528'
p900
I0
sS'99917880715517952'
p901
I1
sS'99753347963297792'
p902
I0
sS'99889936764911616'
p903
I0
sS'100047699897880576'
p904
I1
sS'99975616186679296'
p905
I0
sS'100047927065579520'
p906
I0
sS'99858063988756480'
p907
I1
sS'100033596747821057'
p908
I0
sS'99785939282440192'
p909
I1
sS'100009923835994112'
p910
I0
sS'100066844173545472'
p911
I1
sS'99924134783488002'
p912
I1
sS'100062032803540992'
p913
I0
sS'99977908885524480'
p914
I0
sS'99949628560113664'
p915
I0
sS'99928754557689856'
p916
I1
sS'99732233572720640'
p917
I1
sS'100050509133660160'
p918
I0
sS'99956050614157312'
p919
I1
sS'99987905082175489'
p920
I0
sS'100017272743141376'
p921
I0
sS'99963312011350017'
p922
I0
sS'99777807407788032'
p923
I1
sS'99782768313118720'
p924
I1
sS'99920026542424064'
p925
I1
sS'99969163216433152'
p926
I0
sS'99872610048937984'
p927
I0
sS'99939217949458433'
p928
I1
sS'99925287143346176'
p929
I0
sS'99988920342806528'
p930
I0
sS'100018582527811584'
p931
I0
sS'99965900790300672'
p932
I0
sS'99959946778652672'
p933
I0
sS'99854232110383104'
p934
I0
sS'99823406194761728'
p935
I1
sS'99740376922980352'
p936
I0
sS'100044955904507904'
p937
I1
sS'100005561915019264'
p938
I0
sS'99929715602759680'
p939
I0
sS'99905159471177728'
p940
I1
sS'99947202859905025'
p941
I0
sS'100017930011545600'
p942
I0
sS'99812428816199680'
p943
I0
sS'99991696112222208'
p944
I0
sS'99972627837358080'
p945
I0
sS'99787987801481216'
p946
I1
sS'100063657425240064'
p947
I1
sS'99938797311107072'
p948
I0
sS'99807354199093248'
p949
I1
sS'100034901809709056'
p950
I1
sS'100059834526867456'
p951
I1
sS'99924503068557313'
p952
I0
sS'99923689381969920'
p953
I1
sS'99953892120477696'
p954
I0
sS'99924381014294528'
p955
I0
sS'100049015697190913'
p956
I0
sS'100015132402384896'
p957
I0
sS'99813859237445632'
p958
I0
sS'100044410020036608'
p959
I0
sS'99757907683450880'
p960
I0
sS'99777910755430400'
p961
I0
sS'99878683896070144'
p962
I1
sS'99779921773215744'
p963
I0
sS'99926995990888448'
p964
I0
sS'99828205032189952'
p965
I0
sS'99985748987625472'
p966
I0
sS'100065009094246400'
p967
I0
sS'99948611865022464'
p968
I1
sS'99726635544227840'
p969
I0
sS'99744772163510272'
p970
I0
sS'99729151698808832'
p971
I1
sS'99993771235753984'
p972
I0
sS'99944156922785792'
p973
I0
sS'99918786404155392'
p974
I1
sS'100045249770041345'
p975
I0
sS'99872850621644800'
p976
I1
sS'100028043476733952'
p977
I0
sS'99935857749934080'
p978
I0
sS'99835464151863296'
p979
I1
sS'99875296697782272'
p980
I0
sS'100048051841925120'
p981
I0
sS'99946921422098432'
p982
I1
sS'99902946636087296'
p983
I1
sS'99853153071149056'
p984
I0
sS'100061752145883136'
p985
I1
sS'99909615856259072'
p986
I0
sS'100029562909499392'
p987
I0
sS'100059048933724160'
p988
I1
sS'100028691240857600'
p989
I0
sS'99795499204358144'
p990
I0
sS'99719503407099905'
p991
I0
sS'100013502445527041'
p992
I0
sS'99918588521086978'
p993
I0
sS'99895785033965568'
p994
I0
sS'99714001067458560'
p995
I0
sS'99895906127724544'
p996
I0
sS'99814869133565953'
p997
I1
sS'99930059594407937'
p998
I0
sS'100015091612790784'
p999
I0
sS'99964460395008000'
p1000
I0
sS'99979187078701057'
p1001
I0
sS'100021339431243776'
p1002
I0
sS'99906407888977921'
p1003
I0
sS'99936732207775744'
p1004
I0
sS'100004025877008384'
p1005
I0
sS'99868799993524224'
p1006
I0
sS'100036585764040704'
p1007
I0
sS'100039850559938561'
p1008
I0
sS'100059470117343232'
p1009
I0
sS'99960473239289858'
p1010
I0
sS'100034579074781185'
p1011
I0
sS'99720134180085761'
p1012
I1
sS'99793654092279808'
p1013
I1
sS'99849525899956224'
p1014
I0
sS'99942328231403521'
p1015
I0
sS'99861670008074240'
p1016
I0
sS'99917460785991680'
p1017
I0
sS'100052502912827394'
p1018
I1
sS'100046804363657217'
p1019
I1
sS'99907588002562049'
p1020
I0
sS'100039272467410944'
p1021
I0
sS'99957559913480194'
p1022
I0
sS'99944143098359808'
p1023
I1
sS'99876922716200960'
p1024
I0
sS'99989455569555457'
p1025
I1
sS'100009977485332480'
p1026
I0
sS'100004102263676928'
p1027
I0
sS'99852398297755649'
p1028
I1
sS'99927294805680128'
p1029
I0
sS'99921391041773568'
p1030
I1
sS'99938617971064833'
p1031
I0
sS'99827830543761409'
p1032
I1
sS'100039684813623296'
p1033
I0
sS'100053770137903104'
p1034
I0
sS'100043300664381440'
p1035
I0
sS'99912042818973696'
p1036
I0
sS'100062653774446593'
p1037
I1
sS'99781645263048704'
p1038
I1
sS'99983588711350272'
p1039
I1
sS'99981495078367233'
p1040
I1
sS'99773263722459136'
p1041
I0
sS'99931080739667968'
p1042
I0
sS'100022053947703296'
p1043
I1
sS'100015652697419776'
p1044
I0
sS'99974154173943808'
p1045
I1
sS'99870652554674177'
p1046
I0
sS'99963475052331008'
p1047
I1
sS'99967268447993856'
p1048
I0
sS'99966493944582145'
p1049
I0
sS'100023912875827201'
p1050
I0
sS'99930045468000256'
p1051
I1
sS'99786812335206400'
p1052
I0
sS'99944051897413632'
p1053
I0
sS'99978659934380032'
p1054
I0
sS'99753336630288384'
p1055
I0
sS'99837237205794817'
p1056
I1
sS'99968132671750144'
p1057
I0
sS'99875037888262144'
p1058
I0
sS'99825128107552769'
p1059
I1
sS'100006231720206336'
p1060
I0
sS'99914570499493889'
p1061
I0
sS'100061251576672256'
p1062
I0
sS'99918329355051008'
p1063
I0
sS'99994529603653634'
p1064
I0
sS'100061738954784769'
p1065
I1
sS'99866355574128640'
p1066
I0
sS'99875953114759168'
p1067
I0
sS'100038396143083520'
p1068
I1
sS'99820710838538241'
p1069
I0
sS'100024103485980672'
p1070
I1
sS'99854715025756161'
p1071
I1
sS'99984783135870976'
p1072
I0
sS'99868568224677888'
p1073
I0
sS'99868219409575936'
p1074
I0
sS'99830019118989312'
p1075
I1
sS'99709207615508480'
p1076
I0
sS'100049738195419136'
p1077
I1
sS'100010205265408000'
p1078
I0
sS'99774367675858944'
p1079
I1
sS'99823461341470721'
p1080
I1
sS'100012517509697536'
p1081
I0
sS'99866155690369024'
p1082
I1
sS'99986190161285121'
p1083
I0
sS'99836662976233473'
p1084
I1
sS'100052001508966400'
p1085
I0
sS'100059935362138112'
p1086
I0
sS'99909025205989376'
p1087
I0
sS'99985144991055872'
p1088
I0
sS'99896068392751104'
p1089
I0
sS'99907978597122048'
p1090
I0
sS'99948505984008192'
p1091
I0
sS'99997844479557633'
p1092
I0
sS'99718638323507200'
p1093
I0
sS'100015526742466560'
p1094
I1
sS'100050784728793088'
p1095
I0
sS'100006982924247040'
p1096
I0
sS'99923809963999232'
p1097
I0
sS'99943464388657152'
p1098
I0
sS'99961101936111616'
p1099
I0
sS'99899336942559232'
p1100
I0
sS'99904901303369728'
p1101
I0
sS'100055294280871936'
p1102
I0
sS'100060994742661120'
p1103
I1
sS'100034787238088706'
p1104
I1
sS'99974224877334528'
p1105
I0
sS'99868190523392000'
p1106
I0
sS'99975181585485824'
p1107
I1
sS'99831235441983488'
p1108
I0
sS'100044191748464640'
p1109
I0
sS'99871802678980608'
p1110
I0
sS'99896518118621184'
p1111
I0
sS'99830790464086016'
p1112
I0
sS'100047319629709312'
p1113
I0
sS'99800824221417472'
p1114
I1
sS'99985895226216448'
p1115
I0
sS'99895444829777921'
p1116
I1
sS'100027992167817216'
p1117
I0
sS'100011141115293696'
p1118
I1
sS'100033624736411648'
p1119
I0
sS'100003964111687680'
p1120
I1
sS'100067624578330624'
p1121
I0
sS'99946005625176065'
p1122
I1
sS'99906885305638912'
p1123
I0
sS'99989308693413888'
p1124
I0
sS'99983105296842752'
p1125
I1
sS'99850768923893761'
p1126
I0
sS'100003727888494593'
p1127
I1
sS'99826089479778304'
p1128
I0
sS'99714694746615808'
p1129
I1
sS'99842839902552064'
p1130
I0
sS'99993740353077248'
p1131
I1
sS'99969344062242816'
p1132
I1
sS'99901167643009024'
p1133
I0
sS'99927455833399296'
p1134
I1
sS'99821656750567424'
p1135
I0
sS'99725784436051968'
p1136
I0
sS'100012518457606144'
p1137
I0
sS'100040107087765504'
p1138
I1
sS'99874324722360320'
p1139
I0
sS'100025830738104320'
p1140
I0
sS'100012966690295808'
p1141
I0
sS'99847902658183168'
p1142
I0
sS'99727944322256896'
p1143
I0
sS'99922146851160064'
p1144
I0
sS'100048456961363969'
p1145
I0
sS'99730595873165312'
p1146
I0
sS'99874904299683840'
p1147
I0
sS'99707111340118016'
p1148
I0
sS'99827093751336960'
p1149
I0
sS'99940713592127489'
p1150
I1
sS'100065646871724032'
p1151
I0
sS'99994371604226048'
p1152
I1
sS'99819570860261376'
p1153
I0
sS'100034829265022976'
p1154
I0
sS'99984567498317824'
p1155
I0
sS'100012922075480064'
p1156
I0
sS'99847945091952640'
p1157
I0
sS'99867104236408834'
p1158
I0
sS'99921268798787584'
p1159
I0
sS'100035466098786304'
p1160
I1
sS'99973665092935680'
p1161
I0
sS'100010212173430784'
p1162
I0
sS'99821304248668160'
p1163
I0
sS'100044326754721792'
p1164
I1
sS'100036810570350592'
p1165
I0
sS'99889755587743744'
p1166
I0
sS'99927378016481280'
p1167
I0
sS'99851531104428032'
p1168
I0
sS'100024834607693825'
p1169
I0
sS'99737423885500416'
p1170
I1
sS'99942052376231936'
p1171
I1
sS'99806126098481153'
p1172
I0
sS'99916853048127488'
p1173
I1
sS'100044607651454977'
p1174
I0
sS'99778720516153345'
p1175
I0
sS'100017577635483648'
p1176
I1
sS'99710914147782656'
p1177
I1
sS'100020867915976704'
p1178
I0
sS'99758423574458369'
p1179
I0
sS'99978696563232768'
p1180
I1
sS'100011574386896896'
p1181
I0
sS'100042898988474368'
p1182
I0
sS'99888349791264768'
p1183
I1
sS'99962817574207488'
p1184
I1
sS'99774463737999360'
p1185
I0
sS'99745443562536960'
p1186
I0
sS'99981466531938304'
p1187
I0
sS'99946381455790081'
p1188
I1
sS'100039009450999809'
p1189
I1
sS'100041723618672640'
p1190
I0
sS'99850120274776064'
p1191
I1
sS'100050385108082688'
p1192
I0
sS'99713416075296768'
p1193
I1
sS'99728002203652096'
p1194
I0
sS'99876879531638784'
p1195
I0
sS'100039895145394176'
p1196
I1
sS'99718741394341888'
p1197
I0
sS'100056547798941696'
p1198
I0
sS'99882061527126016'
p1199
I1
sS'100048730690039808'
p1200
I0
sS'99759304583823360'
p1201
I0
sS'100056582473265152'
p1202
I1
sS'99984424774537217'
p1203
I1
sS'99881035793305600'
p1204
I0
sS'99953837519015937'
p1205
I0
sS'99996797568684032'
p1206
I0
sS'99992859981254656'
p1207
I1
sS'100031254996598784'
p1208
I1
sS'100028798409523200'
p1209
I0
sS'99826085633593344'
p1210
I1
sS'99945405185404930'
p1211
I1
sS'99968299605037056'
p1212
I1
sS'99967761316450306'
p1213
I1
sS'99980574579630080'
p1214
I0
sS'99907251485159424'
p1215
I0
sS'99930094776238081'
p1216
I1
sS'99860063061164032'
p1217
I1
sS'99982342214524928'
p1218
I0
sS'99954755455025152'
p1219
I1
sS'99942572398608384'
p1220
I1
sS'100017773190725632'
p1221
I0
sS'99847294156943360'
p1222
I0
sS'99907216894726145'
p1223
I0
sS'100024685546319872'
p1224
I1
sS'100042887806464001'
p1225
I1
sS'100037346971492352'
p1226
I0
sS'100024003325988864'
p1227
I1
sS'99775184361373697'
p1228
I1
sS'100034642249383936'
p1229
I0
sS'99721605097332736'
p1230
I0
sS'99968686831579136'
p1231
I1
sS'99840396951166976'
p1232
I1
sS'99917686997401601'
p1233
I0
sS'99973883901386752'
p1234
I0
sS'99953584577318912'
p1235
I0
sS'99925404852289536'
p1236
I1
sS'99892506535276544'
p1237
I1
sS'99798012129320960'
p1238
I0
sS'99941542525018112'
p1239
I0
sS'99783767178219520'
p1240
I0
sS'99752183557406720'
p1241
I0
sS'99969791305068544'
p1242
I0
sS'99954433684811776'
p1243
I0
sS'99942563691233280'
p1244
I1
sS'99733706549366784'
p1245
I0
sS'99828340990545920'
p1246
I0
sS'99865879440920576'
p1247
I0
sS'100016428647841792'
p1248
I1
sS'99892606087069696'
p1249
I1
sS'100027133858021378'
p1250
I0
sS'100004711272419328'
p1251
I1
sS'99757695908847618'
p1252
I0
sS'100052706374324224'
p1253
I0
sS'100038154681188352'
p1254
I0
sS'100030883150573568'
p1255
I0
sS'99962082375634945'
p1256
I0
sS'99853197308461057'
p1257
I1
sS'99816067752398848'
p1258
I0
sS'99951615359987713'
p1259
I0
sS'99760547616133120'
p1260
I0
sS'99818427555905537'
p1261
I1
sS'99998735521685505'
p1262
I0
sS'99885745271091200'
p1263
I0
sS'99970461689057280'
p1264
I0
sS'99899686332284928'
p1265
I1
sS'99843439012757504'
p1266
I0
sS'99905293617602560'
p1267
I1
sS'99931845931708416'
p1268
I0
sS'100056232164982784'
p1269
I0
sS'99912099412705282'
p1270
I0
sS'100041703456645120'
p1271
I0
sS'99953617053814785'
p1272
I1
sS'100053548787699712'
p1273
I0
sS'99984458261864449'
p1274
I0
sS'99712490048454656'
p1275
I1
sS'100018987680792576'
p1276
I1
sS'100017708820733953'
p1277
I0
sS'99717923400196096'
p1278
I0
sS'99998135983685632'
p1279
I0
sS'99912366682161153'
p1280
I1
sS'99981765703241730'
p1281
I0
sS'99784704621953024'
p1282
I1
sS'99967726398877696'
p1283
I1
sS'99862784979894272'
p1284
I0
sS'99967731465601025'
p1285
I0
sS'99913804808331265'
p1286
I1
sS'99965686541074433'
p1287
I1
sS'100056007551623168'
p1288
I0
sS'99988414077747201'
p1289
I1
sS'99943650288611329'
p1290
I1
sS'99791140697554944'
p1291
I0
sS'99978095515279360'
p1292
I1
sS'100035018528796674'
p1293
I1
sS'99975283783905280'
p1294
I1
sS'100038199497326594'
p1295
I1
sS'99739611458310144'
p1296
I1
sS'99956083157766144'
p1297
I0
sS'100034839289397248'
p1298
I0
sS'99985495597129729'
p1299
I0
sS'99708173212057601'
p1300
I0
sS'99996167294824449'
p1301
I1
sS'99916949202546688'
p1302
I1
sS'99923030951731200'
p1303
I1
sS'99875325537824768'
p1304
I0
sS'99887062156722176'
p1305
I1
sS'99926541802278912'
p1306
I1
sS'99962727400882176'
p1307
I1
sS'100049689579237377'
p1308
I1
sS'99850878864994304'
p1309
I0
sS'99983252328153089'
p1310
I1
sS'99984375957041152'
p1311
I1
sS'99869782391787522'
p1312
I0
sS'100000399360131073'
p1313
I1
sS'99721345641889792'
p1314
I0
sS'99821504249868288'
p1315
I0
sS'99775807676882944'
p1316
I0
sS'99912413863874562'
p1317
I1
sS'100015599673016322'
p1318
I0
sS'99779981827252224'
p1319
I1
sS'99931112784146432'
p1320
I0
sS'99719260867272704'
p1321
I0
sS'100000789703045121'
p1322
I1
sS'100044756586991616'
p1323
I1
sS'99843241536528385'
p1324
I0
sS'99859717509230592'
p1325
I0
sS'100015582056951809'
p1326
I0
sS'99932364767109122'
p1327
I0
sS'99931610782248960'
p1328
I0
sS'99765744644001792'
p1329
I0
sS'99830779412094977'
p1330
I1
sS'99749547009511424'
p1331
I0
sS'100047905024516097'
p1332
I0
sS'99863481087569920'
p1333
I0
sS'99985539087876097'
p1334
I0
sS'99923650643361792'
p1335
I1
sS'100000535247208448'
p1336
I0
sS'99716104246665217'
p1337
I1
sS'100053381648879617'
p1338
I0
sS'99830316612587520'
p1339
I1
sS'100041979714469888'
p1340
I0
sS'99730209883959298'
p1341
I1
sS'99723856796848128'
p1342
I1
sS'99950939494023169'
p1343
I0
sS'100048252140916736'
p1344
I1
sS'99989147678289921'
p1345
I0
sS'99803261405638656'
p1346
I0
sS'99724700275580928'
p1347
I0
sS'99949840527667200'
p1348
I0
sS'99949543533199360'
p1349
I1
sS'100055642991116288'
p1350
I0
sS'99937391170682880'
p1351
I1
sS'99898108451889153'
p1352
I0
sS'99954500202274816'
p1353
I0
sS'100015521705099264'
p1354
I0
sS'99968022407684096'
p1355
I1
sS'99899596234440704'
p1356
I0
sS'99860949380509697'
p1357
I1
sS'99706979920003072'
p1358
I0
sS'99860531753652224'
p1359
I0
sS'99859010836103168'
p1360
I1
sS'99931501071843328'
p1361
I0
sS'99867999921635328'
p1362
I0
sS'99862785365786626'
p1363
I0
sS'99790550307311618'
p1364
I1
sS'99963903383056384'
p1365
I1
sS'99845842978078721'
p1366
I1
sS'100018511828631552'
p1367
I1
sS'99913504412282881'
p1368
I1
sS'99899491854974976'
p1369
I0
sS'99853682883043328'
p1370
I0
sS'99781463951671296'
p1371
I0
sS'99988025337061376'
p1372
I0
sS'99867327964790785'
p1373
I1
sS'99719661901463552'
p1374
I1
sS'99955780534538240'
p1375
I1
sS'99780839856013313'
p1376
I0
sS'99854324867403776'
p1377
I0
sS'99769964474548224'
p1378
I0
sS'99867450098724864'
p1379
I1
sS'99967219001331713'
p1380
I1
sS'99979534551621633'
p1381
I0
sS'100034297196589056'
p1382
I1
sS'99814945302130688'
p1383
I1
sS'99866939123437569'
p1384
I1
sS'99939392528982016'
p1385
I1
sS'99871453066960896'
p1386
I0
sS'99825228447875073'
p1387
I0
sS'99960607469617152'
p1388
I1
sS'99971763500363776'
p1389
I0
sS'99955273069899776'
p1390
I0
sS'99919828114079744'
p1391
I1
sS'99778564567744512'
p1392
I1
sS'99975855081668608'
p1393
I0
sS'99916741966184449'
p1394
I1
sS'99909937135755264'
p1395
I1
sS'99897323466932225'
p1396
I0
sS'99970803835219968'
p1397
I0
sS'99988801337831424'
p1398
I1
sS'99998793046560769'
p1399
I1
sS'99953888551124992'
p1400
I0
sS'99918588353318912'
p1401
I1
sS'99949661602856960'
p1402
I0
sS'100020436435353600'
p1403
I0
sS'100019894279602177'
p1404
I0
sS'99714631949496321'
p1405
I0
sS'99785168650383360'
p1406
I1
sS'100064243302400000'
p1407
I1
sS'99716074752323584'
p1408
I0
sS'99894560276221952'
p1409
I0
sS'99880714820009984'
p1410
I1
sS'99761730351153153'
p1411
I0
sS'99907129816776704'
p1412
I0
sS'99885274632437760'
p1413
I1
sS'99810985287745536'
p1414
I1
sS'99954705895133184'
p1415
I0
sS'99755477218492416'
p1416
I1
sS'100028818558955520'
p1417
I1
sS'99951189843652608'
p1418
I1
sS'100063553377148928'
p1419
I0
sS'99885911139041280'
p1420
I0
sS'99912426237083649'
p1421
I0
sS'99932386590076928'
p1422
I1
sS'99977048302424064'
p1423
I0
sS'99931478170927104'
p1424
I0
sS'99909161227272192'
p1425
I1
sS'100005321333936129'
p1426
I0
sS'100033406540316673'
p1427
I0
sS'99904521366540289'
p1428
I1
sS'100047466547785729'
p1429
I0
sS'99970765952258048'
p1430
I0
sS'99834722145935360'
p1431
I0
sS'99810500296187904'
p1432
I0
sS'99948034397450241'
p1433
I0
sS'99947111751233536'
p1434
I0
sS'99997646403538945'
p1435
I0
sS'99776497384042496'
p1436
I1
sS'99962044358459394'
p1437
I0
sS'100007777577082880'
p1438
I0
sS'100017676096774144'
p1439
I0
sS'99791662632546305'
p1440
I0
sS'100046122839576576'
p1441
I0
sS'99828025251737600'
p1442
I0
sS'99866425614811136'
p1443
I1
sS'99873575749689345'
p1444
I0
sS'99940269734100992'
p1445
I1
sS'99979039485337600'
p1446
I0
sS'99965274765275139'
p1447
I0
sS'100002330786803712'
p1448
I1
sS'99714763554160640'
p1449
I1
sS'99956835750121472'
p1450
I0
sS'100049469378277376'
p1451
I0
sS'99970393087025152'
p1452
I0
sS'99761448141590528'
p1453
I1
sS'100067465911996417'
p1454
I0
sS'99989751632891905'
p1455
I0
sS'99902076481568768'
p1456
I0
sS'99916148245659648'
p1457
I0
sS'99862568260210688'
p1458
I0
sS'99943334512041984'
p1459
I1
sS'99901607935877120'
p1460
I1
sS'99830275596500992'
p1461
I1
sS'99806797518471169'
p1462
I0
sS'99848411897008130'
p1463
I0
sS'99792438608134144'
p1464
I0
sS'99818958638694400'
p1465
I1
sS'99777372332625920'
p1466
I1
sS'99991317593071616'
p1467
I0
sS'99717302378967040'
p1468
I1
sS'99864474521059329'
p1469
I0
sS'100042908127862784'
p1470
I0
sS'100048332772216832'
p1471
I1
sS'99900447300665344'
p1472
I0
sS'99785699322109952'
p1473
I0
sS'99838621829447680'
p1474
I0
sS'99963482224590848'
p1475
I1
sS'99815336462925825'
p1476
I0
sS'99908289869004800'
p1477
I1
sS'99756721563648000'
p1478
I0
sS'99891921425678336'
p1479
I1
sS'99936506986250240'
p1480
I1
sS'99941276627124224'
p1481
I1
sS'100003831294853120'
p1482
I0
sS'99989447390658560'
p1483
I1
sS'99871615843713024'
p1484
I0
sS'99839005960577024'
p1485
I0
sS'99746362161242112'
p1486
I1
sS'99961581617688576'
p1487
I0
sS'99949461110923264'
p1488
I0
sS'100050622463754240'
p1489
I0
sS'100011435622547456'
p1490
I0
sS'99941595624910849'
p1491
I0
sS'99756208008863744'
p1492
I1
sS'100036768950267905'
p1493
I0
sS'99925572364406784'
p1494
I0
sS'99861878028779521'
p1495
I0
sS'99960475730718720'
p1496
I0
sS'99985577805496320'
p1497
I0
sS'99805199941640193'
p1498
I1
sS'99861105316343808'
p1499
I0
sS'99755276361670656'
p1500
I0
sS'99771926016311298'
p1501
I1
sS'99977479120363520'
p1502
I0
sS'100029967743721472'
p1503
I0
sS'99987733258309632'
p1504
I1
sS'99980042146291712'
p1505
I0
sS'99973560159834113'
p1506
I0
sS'99976903145955328'
p1507
I0
sS'99723671081463808'
p1508
I1
sS'99965349209964544'
p1509
I0
sS'99903453987471360'
p1510
I1
sS'99760378795397120'
p1511
I1
sS'100049477653639168'
p1512
I1
sS'100022513500815361'
p1513
I0
sS'100066373979471872'
p1514
I0
sS'99914849924026368'
p1515
I0
sS'99942116687478784'
p1516
I1
sS'99823282131443712'
p1517
I0
sS'99927697374973953'
p1518
I0
sS'99865682166030337'
p1519
I0
sS'100009549972516864'
p1520
I0
sS'99918529666625538'
p1521
I1
sS'99948334369869824'
p1522
I0
sS'100053668426022912'
p1523
I1
sS'99761062882181120'
p1524
I0
sS'100016425829273600'
p1525
I0
sS'100046903462477824'
p1526
I1
sS'99895938096709632'
p1527
I1
sS'99991993479991296'
p1528
I1
sS'99978136774656000'
p1529
I0
sS'99872567472566273'
p1530
I1
sS'99902106458267648'
p1531
I0
sS'100025129718919168'
p1532
I1
sS'100016269293649920'
p1533
I1
sS'99975653897678849'
p1534
I0
sS'99990835067760640'
p1535
I1
sS'99881766621425664'
p1536
I0
sS'99859132869386240'
p1537
I0
sS'99785009661087744'
p1538
I1
sS'99797531990564864'
p1539
I1
sS'100046637430349824'
p1540
I0
sS'99967828563738624'
p1541
I1
sS'99789244159102977'
p1542
I1
sS'99721196647616512'
p1543
I1
sS'99960178044174336'
p1544
I0
sS'99907213048561664'
p1545
I1
sS'99929001203744768'
p1546
I0
sS'99957860703805441'
p1547
I0
sS'100054897621352448'
p1548
I0
sS'99999621945896960'
p1549
I0
sS'99926174368673792'
p1550
I0
sS'99813787653255168'
p1551
I0
sS'99941770900680704'
p1552
I0
sS'100035120190324736'
p1553
I0
sS'99929635848073216'
p1554
I1
sS'99949067345469440'
p1555
I0
sS'99707755400663040'
p1556
I0
sS'99996519087869952'
p1557
I1
sS'100012577899286529'
p1558
I1
sS'100014915913400321'
p1559
I1
sS'100061010651652096'
p1560
I1
sS'99753870418391040'
p1561
I1
sS'99999034743324672'
p1562
I1
sS'99962282603319296'
p1563
I0
sS'99850346855284737'
p1564
I1
sS'99707883024945153'
p1565
I0
sS'100020030623850496'
p1566
I0
sS'99756784843096064'
p1567
I0
sS'99980474675499008'
p1568
I1
sS'99931247047999488'
p1569
I1
sS'99777797895098368'
p1570
I0
sS'99913798625918976'
p1571
I1
sS'99990171273011200'
p1572
I0
sS'99926383848984576'
p1573
I1
sS'99867643120594945'
p1574
I1
sS'99993172872134657'
p1575
I0
sS'99980070160052224'
p1576
I1
sS'100017043163709441'
p1577
I1
sS'99815823010570241'
p1578
I0
sS'99841036809015297'
p1579
I0
sS'99908341307944960'
p1580
I1
sS'99885629202108417'
p1581
I1
sS'99859691324178433'
p1582
I1
sS'99975638852706305'
p1583
I1
sS'100026132874792960'
p1584
I0
sS'99734939041398784'
p1585
I0
sS'99862691048456193'
p1586
I0
sS'99987172433739777'
p1587
I1
sS'99764211932086272'
p1588
I1
sS'99778005425061889'
p1589
I1
sS'100032521298907137'
p1590
I0
sS'99989782087729153'
p1591
I1
sS'99786562950270976'
p1592
I0
sS'99889548930195456'
p1593
I1
sS'100011720566771713'
p1594
I1
sS'99780375273930752'
p1595
I1
sS'99742225583439872'
p1596
I1
sS'99860891587186688'
p1597
I1
sS'99989319623770113'
p1598
I1
sS'100041260433293313'
p1599
I1
sS'99727683679817728'
p1600
I0
sS'99809977232916481'
p1601
I0
sS'99867369186410496'
p1602
I0
sS'100052185009762304'
p1603
I0
sS'99930194369970178'
p1604
I1
sS'99736449032794112'
p1605
I1
sS'99953117944233984'
p1606
I0
sS'99722616427913216'
p1607
I0
sS'99859774983766016'
p1608
I1
sS'99965820578443264'
p1609
I0
sS'99827558702518272'
p1610
I0
sS'99840856571379713'
p1611
I1
sS'99949846311600128'
p1612
I1
sS'100039692694728704'
p1613
I1
sS'99958879764484096'
p1614
I0
sS'100049629294497792'
p1615
I1
sS'100048529975808000'
p1616
I0
sS'99762774695092224'
p1617
I1
sS'99936855239311360'
p1618
I1
sS'99954987890774017'
p1619
I0
sS'99721162417901568'
p1620
I0
sS'99979450329997313'
p1621
I0
sS'99865747819470848'
p1622
I0
sS'99709724638978048'
p1623
I1
sS'99861317988532224'
p1624
I1
sS'99999047661789184'
p1625
I0
sS'99844391736311808'
p1626
I0
sS'100061674614165504'
p1627
I0
sS'99849913235542016'
p1628
I0
sS'99752825378193408'
p1629
I1
sS'99930559714824192'
p1630
I1
sS'99969812855406592'
p1631
I1
sS'100041273242697728'
p1632
I0
sS'99972291756171264'
p1633
I0
sS'99951098625929216'
p1634
I0
sS'99895984913518592'
p1635
I1
sS'100009526715101185'
p1636
I0
sS'99858029092159488'
p1637
I0
sS'99924500015099904'
p1638
I0
sS'100068622344523776'
p1639
I0
sS'99883274712780800'
p1640
I0
sS'99744191508250624'
p1641
I0
sS'99752908584783872'
p1642
I0
sS'99709975986847744'
p1643
I1
sS'99876719904825344'
p1644
I1
sS'99823788543324160'
p1645
I1
sS'99893395685769216'
p1646
I0
sS'99945917800660992'
p1647
I0
sS'100042498755395585'
p1648
I0
sS'99787769630556160'
p1649
I0
sS'99987352851714049'
p1650
I0
sS'99726116805279744'
p1651
I1
sS'100045296255504384'
p1652
I0
sS'99900227053568000'
p1653
I1
sS'100037377669599234'
p1654
I1
sS'100060828941828096'
p1655
I0
sS'99834780241235969'
p1656
I0
sS'99973975639195648'
p1657
I1
sS'99868876162072576'
p1658
I0
sS'100068327686287361'
p1659
I1
sS'99961070550126592'
p1660
I0
sS'100028946892070912'
p1661
I0
sS'99931001173704704'
p1662
I1
sS'99779922343624704'
p1663
I0
sS'99707185780625408'
p1664
I0
sS'99867694844739584'
p1665
I0
sS'99753692198219776'
p1666
I1
sS'99862975841710080'
p1667
I0
sS'100057904526270464'
p1668
I1
sS'99715287141728256'
p1669
I0
sS'99914736925286401'
p1670
I1
sS'99991409993584641'
p1671
I0
sS'99797523677462528'
p1672
I1
sS'99989019747811328'
p1673
I1
sS'99998159148818432'
p1674
I0
sS'100022278045171712'
p1675
I1
sS'99742234248880128'
p1676
I1
sS'99723149607841794'
p1677
I1
sS'99919348164083712'
p1678
I0
sS'100066694936018945'
p1679
I0
sS'100001024777007104'
p1680
I0
sS'99979763829047296'
p1681
I1
sS'99745970476154880'
p1682
I1
sS'99721380475580417'
p1683
I0
sS'99779878471204864'
p1684
I1
sS'99805152592134146'
p1685
I1
sS'99948429983219712'
p1686
I1
sS'99855002872463360'
p1687
I0
sS'99761575770066944'
p1688
I0
sS'99795514018631680'
p1689
I1
sS'99974969852833792'
p1690
I0
sS'100038488535220224'
p1691
I1
sS'99916859926786048'
p1692
I0
sS'99981033696530432'
p1693
I1
sS'99844214103359488'
p1694
I1
sS'99898048553037824'
p1695
I1
sS'99955053703606272'
p1696
I0
sS'99942552056246272'
p1697
I1
sS'99825247963975680'
p1698
I0
sS'99933912448507904'
p1699
I0
sS'99943946695868416'
p1700
I0
sS'99778192054816770'
p1701
I0
sS'99758747009814528'
p1702
I0
sS'99981041984487424'
p1703
I1
sS'99712417050791936'
p1704
I1
sS'99913629784211456'
p1705
I0
sS'99806965034782722'
p1706
I0
sS'100052289687007232'
p1707
I1
sS'99917510589157376'
p1708
I1
sS'99968175390728192'
p1709
I0
sS'100042108563496960'
p1710
I0
sS'99723814627319808'
p1711
I1
sS'99954678573441025'
p1712
I0
sS'99948980443693056'
p1713
I0
sS'99915717612290049'
p1714
I0
sS'100052887878643712'
p1715
I0
sS'99980741374509057'
p1716
I1
sS'100040145750859776'
p1717
I0
sS'99915391341563905'
p1718
I0
sS'99950346499137536'
p1719
I1
sS'99850781200621569'
p1720
I0
sS'99912608609599489'
p1721
I0
sS'100039884877742080'
p1722
I1
sS'99899294072573952'
p1723
I1
sS'99753312605319169'
p1724
I0
sS'100021984624254976'
p1725
I0
sS'99999674022379521'
p1726
I0
sS'99826610777243648'
p1727
I0
sS'99972955756445696'
p1728
I0
sS'99907754738712577'
p1729
I0
sS'99907746413035520'
p1730
I1
sS'99798404183494656'
p1731
I0
sS'99789114429292544'
p1732
I1
sS'100034860940398592'
p1733
I0
sS'100054657757483008'
p1734
I1
sS'99912914034630656'
p1735
I1
sS'100056751289810945'
p1736
I0
sS'100042033472872449'
p1737
I1
sS'99831590426914817'
p1738
I1
sS'99964246363881473'
p1739
I0
sS'99956555184746496'
p1740
I0
sS'99796744489013249'
p1741
I1
sS'99932055860809728'
p1742
I1
sS'99782927071723520'
p1743
I0
sS'99839755226845184'
p1744
I0
sS'99964506356195329'
p1745
I1
sS'99998481195859968'
p1746
I0
sS'99972496773758976'
p1747
I1
sS'100057450723540993'
p1748
I0
sS'99871762564648960'
p1749
I0
sS'99760758723837953'
p1750
I1
sS'99996446857760768'
p1751
I0
sS'99771953895845888'
p1752
I1
sa.